target datalayout = "e-m:e-p270:32:32-p271:32:32-p272:64:64-i64:64-i128:128-f80:128-n8:16:32:64-S128"
target triple = "x86_64-pc-linux-gnu"

%struct.evp_Encode_Ctx_st = type { i32, i32, [80 x i8], i32, i32 }

; Function Attrs: nounwind uwtable
define internal zeroext i8 @conv_ascii2bin(i8 noundef zeroext %0, ptr noundef %1) #0 {
  %3 = alloca i8, align 1
  %4 = alloca i8, align 1
  %5 = alloca ptr, align 8
  store i8 %0, ptr %4, align 1, !tbaa !21
  store ptr %1, ptr %5, align 8, !tbaa !15
  %6 = load i8, ptr %4, align 1, !tbaa !21
  %7 = zext i8 %6 to i32
  %8 = and i32 %7, 128
  %9 = icmp ne i32 %8, 0
  br i1 %9, label %10, label %11

10:                                               ; preds = %2
  store i8 -1, ptr %3, align 1
  br label %17

11:                                               ; preds = %2
  %12 = load ptr, ptr %5, align 8, !tbaa !15
  %13 = load i8, ptr %4, align 1, !tbaa !21
  %14 = zext i8 %13 to i64
  %15 = getelementptr inbounds nuw i8, ptr %12, i64 %14
  %16 = load i8, ptr %15, align 1, !tbaa !21
  store i8 %16, ptr %3, align 1
  br label %17

17:                                               ; preds = %11, %10
  %18 = load i8, ptr %3, align 1
  ret i8 %18
}

; Function Attrs: nounwind uwtable
define internal i32 @evp_decodeblock_int(ptr noundef %0, ptr noundef %1, ptr noundef %2, i32 noundef %3) #0 {
  %5 = alloca i32, align 4
  %6 = alloca ptr, align 8
  %7 = alloca ptr, align 8
  %8 = alloca ptr, align 8
  %9 = alloca i32, align 4
  %10 = alloca i32, align 4
  %11 = alloca i32, align 4
  %12 = alloca i32, align 4
  %13 = alloca i32, align 4
  %14 = alloca i32, align 4
  %15 = alloca i32, align 4
  %16 = alloca i64, align 8
  %17 = alloca ptr, align 8
  %18 = alloca i32, align 4
  store ptr %0, ptr %6, align 8, !tbaa !3
  store ptr %1, ptr %7, align 8, !tbaa !15
  store ptr %2, ptr %8, align 8, !tbaa !15
  store i32 %3, ptr %9, align 4, !tbaa !11
  call void @llvm.lifetime.start.p0(i64 4, ptr %10) #5
  call void @llvm.lifetime.start.p0(i64 4, ptr %11) #5
  store i32 0, ptr %11, align 4, !tbaa !11
  call void @llvm.lifetime.start.p0(i64 4, ptr %12) #5
  call void @llvm.lifetime.start.p0(i64 4, ptr %13) #5
  call void @llvm.lifetime.start.p0(i64 4, ptr %14) #5
  call void @llvm.lifetime.start.p0(i64 4, ptr %15) #5
  call void @llvm.lifetime.start.p0(i64 8, ptr %16) #5
  call void @llvm.lifetime.start.p0(i64 8, ptr %17) #5
  %19 = load ptr, ptr %6, align 8, !tbaa !3
  %20 = icmp ne ptr %19, null
  br i1 %20, label %21, label %28

21:                                               ; preds = %4
  %22 = load ptr, ptr %6, align 8, !tbaa !3
  %23 = getelementptr inbounds nuw %struct.evp_Encode_Ctx_st, ptr %22, i32 0, i32 4
  %24 = load i32, ptr %23, align 4, !tbaa !12
  %25 = and i32 %24, 2
  %26 = icmp ne i32 %25, 0
  br i1 %26, label %27, label %28

27:                                               ; preds = %21
  store ptr @srpdata_ascii2bin, ptr %17, align 8, !tbaa !15
  br label %29

28:                                               ; preds = %21, %4
  store ptr @data_ascii2bin, ptr %17, align 8, !tbaa !15
  br label %29

29:                                               ; preds = %28, %27
  br label %30

30:                                               ; preds = %42, %29
  %31 = load i32, ptr %9, align 4, !tbaa !11
  %32 = icmp sgt i32 %31, 0
  br i1 %32, label %33, label %40

33:                                               ; preds = %30
  %34 = load ptr, ptr %8, align 8, !tbaa !15
  %35 = load i8, ptr %34, align 1, !tbaa !21
  %36 = load ptr, ptr %17, align 8, !tbaa !15
  %37 = call zeroext i8 @conv_ascii2bin(i8 noundef zeroext %35, ptr noundef %36)
  %38 = zext i8 %37 to i32
  %39 = icmp eq i32 %38, 224
  br label %40

40:                                               ; preds = %33, %30
  %41 = phi i1 [ false, %30 ], [ %39, %33 ]
  br i1 %41, label %42, label %47

42:                                               ; preds = %40
  %43 = load ptr, ptr %8, align 8, !tbaa !15
  %44 = getelementptr inbounds nuw i8, ptr %43, i32 1
  store ptr %44, ptr %8, align 8, !tbaa !15
  %45 = load i32, ptr %9, align 4, !tbaa !11
  %46 = add nsw i32 %45, -1
  store i32 %46, ptr %9, align 4, !tbaa !11
  br label %30, !llvm.loop !26

47:                                               ; preds = %40
  br label %48

48:                                               ; preds = %65, %47
  %49 = load i32, ptr %9, align 4, !tbaa !11
  %50 = icmp sgt i32 %49, 3
  br i1 %50, label %51, label %63

51:                                               ; preds = %48
  %52 = load ptr, ptr %8, align 8, !tbaa !15
  %53 = load i32, ptr %9, align 4, !tbaa !11
  %54 = sub nsw i32 %53, 1
  %55 = sext i32 %54 to i64
  %56 = getelementptr inbounds i8, ptr %52, i64 %55
  %57 = load i8, ptr %56, align 1, !tbaa !21
  %58 = load ptr, ptr %17, align 8, !tbaa !15
  %59 = call zeroext i8 @conv_ascii2bin(i8 noundef zeroext %57, ptr noundef %58)
  %60 = zext i8 %59 to i32
  %61 = or i32 %60, 19
  %62 = icmp eq i32 %61, 243
  br label %63

63:                                               ; preds = %51, %48
  %64 = phi i1 [ false, %48 ], [ %62, %51 ]
  br i1 %64, label %65, label %68

65:                                               ; preds = %63
  %66 = load i32, ptr %9, align 4, !tbaa !11
  %67 = add nsw i32 %66, -1
  store i32 %67, ptr %9, align 4, !tbaa !11
  br label %48, !llvm.loop !27

68:                                               ; preds = %63
  %69 = load i32, ptr %9, align 4, !tbaa !11
  %70 = srem i32 %69, 4
  %71 = icmp ne i32 %70, 0
  br i1 %71, label %72, label %73

72:                                               ; preds = %68
  store i32 -1, ptr %5, align 4
  store i32 1, ptr %18, align 4
  br label %158

73:                                               ; preds = %68
  store i32 0, ptr %10, align 4, !tbaa !11
  br label %74

74:                                               ; preds = %153, %73
  %75 = load i32, ptr %10, align 4, !tbaa !11
  %76 = load i32, ptr %9, align 4, !tbaa !11
  %77 = icmp slt i32 %75, %76
  br i1 %77, label %78, label %156

78:                                               ; preds = %74
  %79 = load ptr, ptr %8, align 8, !tbaa !15
  %80 = getelementptr inbounds nuw i8, ptr %79, i32 1
  store ptr %80, ptr %8, align 8, !tbaa !15
  %81 = load i8, ptr %79, align 1, !tbaa !21
  %82 = load ptr, ptr %17, align 8, !tbaa !15
  %83 = call zeroext i8 @conv_ascii2bin(i8 noundef zeroext %81, ptr noundef %82)
  %84 = zext i8 %83 to i32
  store i32 %84, ptr %12, align 4, !tbaa !11
  %85 = load ptr, ptr %8, align 8, !tbaa !15
  %86 = getelementptr inbounds nuw i8, ptr %85, i32 1
  store ptr %86, ptr %8, align 8, !tbaa !15
  %87 = load i8, ptr %85, align 1, !tbaa !21
  %88 = load ptr, ptr %17, align 8, !tbaa !15
  %89 = call zeroext i8 @conv_ascii2bin(i8 noundef zeroext %87, ptr noundef %88)
  %90 = zext i8 %89 to i32
  store i32 %90, ptr %13, align 4, !tbaa !11
  %91 = load ptr, ptr %8, align 8, !tbaa !15
  %92 = getelementptr inbounds nuw i8, ptr %91, i32 1
  store ptr %92, ptr %8, align 8, !tbaa !15
  %93 = load i8, ptr %91, align 1, !tbaa !21
  %94 = load ptr, ptr %17, align 8, !tbaa !15
  %95 = call zeroext i8 @conv_ascii2bin(i8 noundef zeroext %93, ptr noundef %94)
  %96 = zext i8 %95 to i32
  store i32 %96, ptr %14, align 4, !tbaa !11
  %97 = load ptr, ptr %8, align 8, !tbaa !15
  %98 = getelementptr inbounds nuw i8, ptr %97, i32 1
  store ptr %98, ptr %8, align 8, !tbaa !15
  %99 = load i8, ptr %97, align 1, !tbaa !21
  %100 = load ptr, ptr %17, align 8, !tbaa !15
  %101 = call zeroext i8 @conv_ascii2bin(i8 noundef zeroext %99, ptr noundef %100)
  %102 = zext i8 %101 to i32
  store i32 %102, ptr %15, align 4, !tbaa !11
  %103 = load i32, ptr %12, align 4, !tbaa !11
  %104 = load i32, ptr %13, align 4, !tbaa !11
  %105 = or i32 %103, %104
  %106 = load i32, ptr %14, align 4, !tbaa !11
  %107 = or i32 %105, %106
  %108 = load i32, ptr %15, align 4, !tbaa !11
  %109 = or i32 %107, %108
  %110 = and i32 %109, 128
  %111 = icmp ne i32 %110, 0
  br i1 %111, label %112, label %113

112:                                              ; preds = %78
  store i32 -1, ptr %5, align 4
  store i32 1, ptr %18, align 4
  br label %158

113:                                              ; preds = %78
  %114 = load i32, ptr %12, align 4, !tbaa !11
  %115 = sext i32 %114 to i64
  %116 = shl i64 %115, 18
  %117 = load i32, ptr %13, align 4, !tbaa !11
  %118 = sext i32 %117 to i64
  %119 = shl i64 %118, 12
  %120 = or i64 %116, %119
  %121 = load i32, ptr %14, align 4, !tbaa !11
  %122 = sext i32 %121 to i64
  %123 = shl i64 %122, 6
  %124 = or i64 %120, %123
  %125 = load i32, ptr %15, align 4, !tbaa !11
  %126 = sext i32 %125 to i64
  %127 = or i64 %124, %126
  store i64 %127, ptr %16, align 8, !tbaa !19
  %128 = load i64, ptr %16, align 8, !tbaa !19
  %129 = lshr i64 %128, 16
  %130 = trunc i64 %129 to i8
  %131 = zext i8 %130 to i32
  %132 = and i32 %131, 255
  %133 = trunc i32 %132 to i8
  %134 = load ptr, ptr %7, align 8, !tbaa !15
  %135 = getelementptr inbounds nuw i8, ptr %134, i32 1
  store ptr %135, ptr %7, align 8, !tbaa !15
  store i8 %133, ptr %134, align 1, !tbaa !21
  %136 = load i64, ptr %16, align 8, !tbaa !19
  %137 = lshr i64 %136, 8
  %138 = trunc i64 %137 to i8
  %139 = zext i8 %138 to i32
  %140 = and i32 %139, 255
  %141 = trunc i32 %140 to i8
  %142 = load ptr, ptr %7, align 8, !tbaa !15
  %143 = getelementptr inbounds nuw i8, ptr %142, i32 1
  store ptr %143, ptr %7, align 8, !tbaa !15
  store i8 %141, ptr %142, align 1, !tbaa !21
  %144 = load i64, ptr %16, align 8, !tbaa !19
  %145 = trunc i64 %144 to i8
  %146 = zext i8 %145 to i32
  %147 = and i32 %146, 255
  %148 = trunc i32 %147 to i8
  %149 = load ptr, ptr %7, align 8, !tbaa !15
  %150 = getelementptr inbounds nuw i8, ptr %149, i32 1
  store ptr %150, ptr %7, align 8, !tbaa !15
  store i8 %148, ptr %149, align 1, !tbaa !21
  %151 = load i32, ptr %11, align 4, !tbaa !11
  %152 = add nsw i32 %151, 3
  store i32 %152, ptr %11, align 4, !tbaa !11
  br label %153

153:                                              ; preds = %113
  %154 = load i32, ptr %10, align 4, !tbaa !11
  %155 = add nsw i32 %154, 4
  store i32 %155, ptr %10, align 4, !tbaa !11
  br label %74, !llvm.loop !28

156:                                              ; preds = %74
  %157 = load i32, ptr %11, align 4, !tbaa !11
  store i32 %157, ptr %5, align 4
  store i32 1, ptr %18, align 4
  br label %158

158:                                              ; preds = %156, %112, %72
  call void @llvm.lifetime.end.p0(i64 8, ptr %17) #5
  call void @llvm.lifetime.end.p0(i64 8, ptr %16) #5
  call void @llvm.lifetime.end.p0(i64 4, ptr %15) #5
  call void @llvm.lifetime.end.p0(i64 4, ptr %14) #5
  call void @llvm.lifetime.end.p0(i64 4, ptr %13) #5
  call void @llvm.lifetime.end.p0(i64 4, ptr %12) #5
  call void @llvm.lifetime.end.p0(i64 4, ptr %11) #5
  call void @llvm.lifetime.end.p0(i64 4, ptr %10) #5
  %159 = load i32, ptr %5, align 4
  ret i32 %159
}