; Function Attrs: nofree norecurse nosync nounwind memory(argmem: readwrite) uwtable
define internal fastcc range(i32 3, 1) i32 @evp_decodeblock_int(ptr noundef readonly captures(address_is_null) %0, ptr noundef writeonly captures(none) %1, ptr noundef readonly captures(none) %2, i32 noundef %3) unnamed_addr #7 {
  %.not = icmp eq ptr %0, null
  br i1 %.not, label %9, label %5

5:                                                ; preds = %4
  %6 = getelementptr inbounds nuw i8, ptr %0, i64 92
  %7 = load i32, ptr %6, align 4, !tbaa !8
  %8 = and i32 %7, 2
  %.not50 = icmp eq i32 %8, 0
  br i1 %.not50, label %9, label %10

9:                                                ; preds = %5, %4
  br label %10

10:                                               ; preds = %5, %9
  %.0 = phi ptr [ @data_ascii2bin, %9 ], [ @srpdata_ascii2bin, %5 ]
  %11 = icmp sgt i32 %3, 0
  br i1 %11, label %.lr.ph, label %.critedge2

.lr.ph:                                           ; preds = %10, %17
  %.04471 = phi ptr [ %18, %17 ], [ %2, %10 ]
  %.04570 = phi i32 [ %19, %17 ], [ %3, %10 ]
  %12 = load i8, ptr %.04471, align 1, !tbaa !12
  %.not.i = icmp sgt i8 %12, -1
  br i1 %.not.i, label %conv_ascii2bin.exit, label %.critedge

conv_ascii2bin.exit:                              ; preds = %.lr.ph
  %13 = zext nneg i8 %12 to i64
  %14 = getelementptr inbounds nuw i8, ptr %.0, i64 %13
  %15 = load i8, ptr %14, align 1, !tbaa !12
  %16 = icmp eq i8 %15, -32
  br i1 %16, label %17, label %.critedge

17:                                               ; preds = %conv_ascii2bin.exit
  %18 = getelementptr inbounds nuw i8, ptr %.04471, i64 1
  %19 = add nsw i32 %.04570, -1
  %20 = icmp sgt i32 %.04570, 1
  br i1 %20, label %.lr.ph, label %.loopexit, !llvm.loop !17

.critedge:                                        ; preds = %conv_ascii2bin.exit, %.lr.ph
  %invariant.gep = getelementptr i8, ptr %.04471, i64 -1
  %21 = icmp samesign ugt i32 %.04570, 3
  br i1 %21, label %.lr.ph79, label %.critedge2

.lr.ph79:                                         ; preds = %.critedge, %29
  %.14678 = phi i32 [ %30, %29 ], [ %.04570, %.critedge ]
  %22 = zext nneg i32 %.14678 to i64
  %gep = getelementptr i8, ptr %invariant.gep, i64 %22
  %23 = load i8, ptr %gep, align 1, !tbaa !12
  %.not.i53 = icmp sgt i8 %23, -1
  br i1 %.not.i53, label %conv_ascii2bin.exit55, label %.critedge2

conv_ascii2bin.exit55:                            ; preds = %.lr.ph79
  %24 = zext nneg i8 %23 to i64
  %25 = getelementptr inbounds nuw i8, ptr %.0, i64 %24
  %26 = load i8, ptr %25, align 1, !tbaa !12
  %27 = and i8 %26, -20
  %28 = icmp eq i8 %27, -32
  br i1 %28, label %29, label %.critedge2

29:                                               ; preds = %conv_ascii2bin.exit55
  %30 = add nsw i32 %.14678, -1
  %31 = icmp sgt i32 %.14678, 4
  br i1 %31, label %.lr.ph79, label %.loopexit, !llvm.loop !18

.critedge2:                                       ; preds = %conv_ascii2bin.exit55, %.lr.ph79, %10, %.critedge
  %.044.lcssa94 = phi ptr [ %.04471, %.critedge ], [ %2, %10 ], [ %.04471, %.lr.ph79 ], [ %.04471, %conv_ascii2bin.exit55 ]
  %.146.lcssa = phi i32 [ %.04570, %.critedge ], [ %3, %10 ], [ %.14678, %.lr.ph79 ], [ %.14678, %conv_ascii2bin.exit55 ]
  %32 = and i32 %.146.lcssa, 3
  %.not51 = icmp eq i32 %32, 0
  br i1 %.not51, label %.preheader, label %.loopexit

.preheader:                                       ; preds = %.critedge2
  %33 = icmp sgt i32 %.146.lcssa, 0
  br i1 %33, label %.lr.ph88, label %.loopexit

.lr.ph88:                                         ; preds = %.preheader, %60
  %.04387 = phi ptr [ %78, %60 ], [ %1, %.preheader ]
  %.186 = phi ptr [ %61, %60 ], [ %.044.lcssa94, %.preheader ]
  %.04785 = phi i32 [ %80, %60 ], [ 0, %.preheader ]
  %.04884 = phi i32 [ %79, %60 ], [ 0, %.preheader ]
  %34 = getelementptr inbounds nuw i8, ptr %.186, i64 1
  %35 = load i8, ptr %.186, align 1, !tbaa !12
  %.not.i56 = icmp sgt i8 %35, -1
  br i1 %.not.i56, label %36, label %conv_ascii2bin.exit58

36:                                               ; preds = %.lr.ph88
  %37 = zext nneg i8 %35 to i64
  %38 = getelementptr inbounds nuw i8, ptr %.0, i64 %37
  %39 = load i8, ptr %38, align 1, !tbaa !12
  br label %conv_ascii2bin.exit58

conv_ascii2bin.exit58:                            ; preds = %.lr.ph88, %36
  %.0.i57 = phi i8 [ %39, %36 ], [ -1, %.lr.ph88 ]
  %40 = getelementptr inbounds nuw i8, ptr %.186, i64 2
  %41 = load i8, ptr %34, align 1, !tbaa !12
  %.not.i59 = icmp sgt i8 %41, -1
  br i1 %.not.i59, label %42, label %conv_ascii2bin.exit61

42:                                               ; preds = %conv_ascii2bin.exit58
  %43 = zext nneg i8 %41 to i64
  %44 = getelementptr inbounds nuw i8, ptr %.0, i64 %43
  %45 = load i8, ptr %44, align 1, !tbaa !12
  br label %conv_ascii2bin.exit61

conv_ascii2bin.exit61:                            ; preds = %conv_ascii2bin.exit58, %42
  %.0.i60 = phi i8 [ %45, %42 ], [ -1, %conv_ascii2bin.exit58 ]
  %46 = getelementptr inbounds nuw i8, ptr %.186, i64 3
  %47 = load i8, ptr %40, align 1, !tbaa !12
  %.not.i62 = icmp sgt i8 %47, -1
  br i1 %.not.i62, label %48, label %conv_ascii2bin.exit64

48:                                               ; preds = %conv_ascii2bin.exit61
  %49 = zext nneg i8 %47 to i64
  %50 = getelementptr inbounds nuw i8, ptr %.0, i64 %49
  %51 = load i8, ptr %50, align 1, !tbaa !12
  br label %conv_ascii2bin.exit64

conv_ascii2bin.exit64:                            ; preds = %conv_ascii2bin.exit61, %48
  %.0.i63 = phi i8 [ %51, %48 ], [ -1, %conv_ascii2bin.exit61 ]
  %52 = load i8, ptr %46, align 1, !tbaa !12
  %.not.i65 = icmp sgt i8 %52, -1
  br i1 %.not.i65, label %53, label %conv_ascii2bin.exit67

53:                                               ; preds = %conv_ascii2bin.exit64
  %54 = zext nneg i8 %52 to i64
  %55 = getelementptr inbounds nuw i8, ptr %.0, i64 %54
  %56 = load i8, ptr %55, align 1, !tbaa !12
  br label %conv_ascii2bin.exit67

conv_ascii2bin.exit67:                            ; preds = %conv_ascii2bin.exit64, %53
  %.0.i66 = phi i8 [ %56, %53 ], [ -1, %conv_ascii2bin.exit64 ]
  %57 = or i8 %.0.i60, %.0.i57
  %58 = or i8 %57, %.0.i63
  %59 = or i8 %58, %.0.i66
  %.not52 = icmp sgt i8 %59, -1
  br i1 %.not52, label %60, label %.loopexit

60:                                               ; preds = %conv_ascii2bin.exit67
  %61 = getelementptr inbounds nuw i8, ptr %.186, i64 4
  %62 = zext i8 %.0.i57 to i64
  %63 = shl nuw nsw i64 %62, 18
  %64 = zext i8 %.0.i60 to i64
  %65 = shl nuw nsw i64 %64, 12
  %66 = or i64 %65, %63
  %67 = zext i8 %.0.i63 to i64
  %68 = shl nuw nsw i64 %67, 6
  %69 = or i64 %68, %65
  %70 = lshr i64 %66, 16
  %71 = trunc i64 %70 to i8
  %72 = getelementptr inbounds nuw i8, ptr %.04387, i64 1
  store i8 %71, ptr %.04387, align 1, !tbaa !12
  %73 = lshr i64 %69, 8
  %74 = trunc i64 %73 to i8
  %75 = getelementptr inbounds nuw i8, ptr %.04387, i64 2
  store i8 %74, ptr %72, align 1, !tbaa !12
  %76 = trunc i64 %68 to i8
  %77 = or i8 %.0.i66, %76
  %78 = getelementptr inbounds nuw i8, ptr %.04387, i64 3
  store i8 %77, ptr %75, align 1, !tbaa !12
  %79 = add nuw nsw i32 %.04884, 3
  %80 = add nuw nsw i32 %.04785, 4
  %81 = icmp slt i32 %80, %.146.lcssa
  br i1 %81, label %.lr.ph88, label %.loopexit, !llvm.loop !19

.loopexit:                                        ; preds = %17, %29, %conv_ascii2bin.exit67, %60, %.preheader, %.critedge2
  %.042 = phi i32 [ -1, %.critedge2 ], [ 0, %.preheader ], [ -1, %conv_ascii2bin.exit67 ], [ %79, %60 ], [ -1, %29 ], [ 0, %17 ]
  ret i32 %.042
}